target datalayout = "e-m:e-p270:32:32-p271:32:32-p272:64:64-i64:64-i128:128-f80:128-n8:16:32:64-S128"
target triple = "x86_64-pc-linux-gnu"

%class.QString = type { ptr }
%class.QKeyEvent = type <{ %class.QInputEvent, %class.QString, i32, i32, i32, i32, i16, i8, [5 x i8] }>
%class.QInputEvent = type { %class.QEvent.base, %class.QFlags, i64 }
%class.QEvent.base = type <{ ptr, ptr, i16, i16 }>
%class.QFlags = type { i32 }

; Function Attrs: mustprogress nounwind uwtable
define linkonce_odr noundef i32 @_ZNK9QKeyEvent3keyEv(ptr noundef nonnull align 8 dereferenceable(59) %0) #1 comdat align 2 {
  %2 = alloca ptr, align 8
  store ptr %0, ptr %2, align 8
  %3 = load ptr, ptr %2, align 8
  %4 = getelementptr inbounds %class.QKeyEvent, ptr %3, i32 0, i32 2
  %5 = load i32, ptr %4, align 8
  ret i32 %5
}

; Function Attrs: mustprogress uwtable
define void @_ZN12MenuLineEdit13keyPressEventEP9QKeyEvent(ptr noundef nonnull align 8 dereferenceable(48) %0, ptr noundef %1) unnamed_addr #2 align 2 {
  %3 = alloca ptr, align 8
  %4 = alloca ptr, align 8
  %5 = alloca i32, align 4
  store ptr %0, ptr %3, align 8
  store ptr %1, ptr %4, align 8
  %6 = load ptr, ptr %3, align 8
  %7 = load ptr, ptr %4, align 8
  %8 = call noundef i32 @_ZNK9QKeyEvent3keyEv(ptr noundef nonnull align 8 dereferenceable(59) %7)
  store i32 %8, ptr %5, align 4
  %9 = load i32, ptr %5, align 4
  %10 = icmp ne i32 %9, 16777235
  br i1 %10, label %11, label %16

11:                                               ; preds = %2
  %12 = load i32, ptr %5, align 4
  %13 = icmp ne i32 %12, 16777237
  br i1 %13, label %14, label %16

14:                                               ; preds = %11
  %15 = load ptr, ptr %4, align 8
  call void @_ZN9QLineEdit13keyPressEventEP9QKeyEvent(ptr noundef nonnull align 8 dereferenceable(48) %6, ptr noundef %15)
  br label %18

16:                                               ; preds = %11, %2
  %17 = load i32, ptr %5, align 4
  call void @_ZN12MenuLineEdit12arrowPressedEi(ptr noundef nonnull align 8 dereferenceable(48) %6, i32 noundef %17)
  br label %18

18:                                               ; preds = %16, %14
  ret void
}