; Function Attrs: mustprogress uwtable
define void @_ZN12MenuLineEdit13keyPressEventEP9QKeyEvent(ptr noundef nonnull align 8 dereferenceable(48) %0, ptr noundef %1) unnamed_addr #2 align 2 {
  %3 = getelementptr inbounds i8, ptr %1, i64 40
  %4 = load i32, ptr %3, align 8
  switch i32 %4, label %5 [
    i32 16777237, label %6
    i32 16777235, label %6
  ]

5:                                                ; preds = %2
  tail call void @_ZN9QLineEdit13keyPressEventEP9QKeyEvent(ptr noundef nonnull align 8 dereferenceable(48) %0, ptr noundef nonnull %1)
  br label %7

6:                                                ; preds = %2, %2
  tail call void @_ZN12MenuLineEdit12arrowPressedEi(ptr noundef nonnull align 8 dereferenceable(48) %0, i32 noundef %4)
  br label %7

7:                                                ; preds = %6, %5
  ret void
}